target datalayout = "e-m:e-p270:32:32-p271:32:32-p272:64:64-i64:64-i128:128-f80:128-n8:16:32:64-S128"
target triple = "x86_64-pc-linux-gnu"

%struct.FFDrawContext = type { ptr, i32, i32, [4 x i32], [4 x i8], [4 x i8], i8, i8, i32, i32, i32, [3 x [3 x double]] }
%struct.FFDrawColor = type { [4 x i8], [4 x %union.anon.2] }
%union.anon.2 = type { [4 x i32] }
%struct.AVChannelLayout = type { i32, i32, %union.anon.1, ptr }
%union.anon.1 = type { i64 }
%struct.AVRational = type { i32, i32 }
%struct.AVFrame = type { [8 x ptr], [8 x i32], ptr, i32, i32, i32, i32, i32, %struct.AVRational, i64, i64, %struct.AVRational, i32, ptr, i32, i32, [8 x ptr], ptr, i32, ptr, i32, i32, i32, i32, i32, i32, i32, i64, ptr, i32, ptr, ptr, i64, i64, i64, i64, ptr, %struct.AVChannelLayout, i64 }

; Function Attrs: nounwind uwtable
define internal void @pick_color8(ptr noundef %0, ptr noundef %1, ptr noundef %2, i32 noundef %3, i32 noundef %4, ptr noundef %5) #0 {
  %7 = alloca ptr, align 8
  %8 = alloca ptr, align 8
  %9 = alloca ptr, align 8
  %10 = alloca i32, align 4
  %11 = alloca i32, align 4
  %12 = alloca ptr, align 8
  %13 = alloca i32, align 4
  %14 = alloca i32, align 4
  store ptr %0, ptr %7, align 8, !tbaa !84
  store ptr %1, ptr %8, align 8, !tbaa !86
  store ptr %2, ptr %9, align 8, !tbaa !31
  store i32 %3, ptr %10, align 4, !tbaa !14
  store i32 %4, ptr %11, align 4, !tbaa !14
  store ptr %5, ptr %12, align 8, !tbaa !107
  call void @llvm.lifetime.start.p0(i64 4, ptr %13) #11
  call void @llvm.lifetime.start.p0(i64 4, ptr %14) #11
  %15 = load ptr, ptr %8, align 8, !tbaa !86
  %16 = getelementptr inbounds nuw %struct.FFDrawColor, ptr %15, i32 0, i32 0
  %17 = getelementptr inbounds [4 x i8], ptr %16, i64 0, i64 3
  store i8 -1, ptr %17, align 1, !tbaa !70
  store i32 0, ptr %13, align 4, !tbaa !14
  br label %18

18:                                               ; preds = %131, %6
  %19 = load i32, ptr %13, align 4, !tbaa !14
  %20 = load ptr, ptr %7, align 8, !tbaa !84
  %21 = getelementptr inbounds nuw %struct.FFDrawContext, ptr %20, i32 0, i32 2
  %22 = load i32, ptr %21, align 4, !tbaa !109
  %23 = icmp ult i32 %19, %22
  br i1 %23, label %24, label %134

24:                                               ; preds = %18
  %25 = load ptr, ptr %7, align 8, !tbaa !84
  %26 = getelementptr inbounds nuw %struct.FFDrawContext, ptr %25, i32 0, i32 2
  %27 = load i32, ptr %26, align 4, !tbaa !109
  %28 = icmp eq i32 %27, 1
  br i1 %28, label %29, label %77

29:                                               ; preds = %24
  store i32 0, ptr %14, align 4, !tbaa !14
  br label %30

30:                                               ; preds = %73, %29
  %31 = load i32, ptr %14, align 4, !tbaa !14
  %32 = icmp slt i32 %31, 4
  br i1 %32, label %33, label %76

33:                                               ; preds = %30
  %34 = load ptr, ptr %9, align 8, !tbaa !31
  %35 = getelementptr inbounds nuw %struct.AVFrame, ptr %34, i32 0, i32 0
  %36 = getelementptr inbounds [8 x ptr], ptr %35, i64 0, i64 0
  %37 = load ptr, ptr %36, align 8, !tbaa !12
  %38 = load i32, ptr %11, align 4, !tbaa !14
  %39 = load ptr, ptr %9, align 8, !tbaa !31
  %40 = getelementptr inbounds nuw %struct.AVFrame, ptr %39, i32 0, i32 1
  %41 = getelementptr inbounds [8 x i32], ptr %40, i64 0, i64 0
  %42 = load i32, ptr %41, align 8, !tbaa !14
  %43 = mul nsw i32 %38, %42
  %44 = load i32, ptr %10, align 4, !tbaa !14
  %45 = load ptr, ptr %7, align 8, !tbaa !84
  %46 = getelementptr inbounds nuw %struct.FFDrawContext, ptr %45, i32 0, i32 3
  %47 = getelementptr inbounds [4 x i32], ptr %46, i64 0, i64 0
  %48 = load i32, ptr %47, align 8, !tbaa !14
  %49 = mul nsw i32 %44, %48
  %50 = add nsw i32 %43, %49
  %51 = load i32, ptr %14, align 4, !tbaa !14
  %52 = add nsw i32 %50, %51
  %53 = sext i32 %52 to i64
  %54 = getelementptr inbounds i8, ptr %37, i64 %53
  %55 = load i8, ptr %54, align 1, !tbaa !70
  %56 = zext i8 %55 to i32
  %57 = load ptr, ptr %12, align 8, !tbaa !107
  %58 = load i32, ptr %14, align 4, !tbaa !14
  %59 = sext i32 %58 to i64
  %60 = getelementptr inbounds i32, ptr %57, i64 %59
  store i32 %56, ptr %60, align 4, !tbaa !14
  %61 = load ptr, ptr %12, align 8, !tbaa !107
  %62 = load i32, ptr %14, align 4, !tbaa !14
  %63 = sext i32 %62 to i64
  %64 = getelementptr inbounds i32, ptr %61, i64 %63
  %65 = load i32, ptr %64, align 4, !tbaa !14
  %66 = trunc i32 %65 to i8
  %67 = load ptr, ptr %8, align 8, !tbaa !86
  %68 = getelementptr inbounds nuw %struct.FFDrawColor, ptr %67, i32 0, i32 1
  %69 = getelementptr inbounds [4 x %union.anon.2], ptr %68, i64 0, i64 0
  %70 = load i32, ptr %14, align 4, !tbaa !14
  %71 = sext i32 %70 to i64
  %72 = getelementptr inbounds [16 x i8], ptr %69, i64 0, i64 %71
  store i8 %66, ptr %72, align 1, !tbaa !70
  br label %73

73:                                               ; preds = %33
  %74 = load i32, ptr %14, align 4, !tbaa !14
  %75 = add nsw i32 %74, 1
  store i32 %75, ptr %14, align 4, !tbaa !14
  br label %30, !llvm.loop !110

76:                                               ; preds = %30
  br label %130

77:                                               ; preds = %24
  %78 = load ptr, ptr %9, align 8, !tbaa !31
  %79 = getelementptr inbounds nuw %struct.AVFrame, ptr %78, i32 0, i32 0
  %80 = load i32, ptr %13, align 4, !tbaa !14
  %81 = sext i32 %80 to i64
  %82 = getelementptr inbounds [8 x ptr], ptr %79, i64 0, i64 %81
  %83 = load ptr, ptr %82, align 8, !tbaa !12
  %84 = load i32, ptr %11, align 4, !tbaa !14
  %85 = load ptr, ptr %7, align 8, !tbaa !84
  %86 = getelementptr inbounds nuw %struct.FFDrawContext, ptr %85, i32 0, i32 5
  %87 = load i32, ptr %13, align 4, !tbaa !14
  %88 = sext i32 %87 to i64
  %89 = getelementptr inbounds [4 x i8], ptr %86, i64 0, i64 %88
  %90 = load i8, ptr %89, align 1, !tbaa !70
  %91 = zext i8 %90 to i32
  %92 = ashr i32 %84, %91
  %93 = load ptr, ptr %9, align 8, !tbaa !31
  %94 = getelementptr inbounds nuw %struct.AVFrame, ptr %93, i32 0, i32 1
  %95 = load i32, ptr %13, align 4, !tbaa !14
  %96 = sext i32 %95 to i64
  %97 = getelementptr inbounds [8 x i32], ptr %94, i64 0, i64 %96
  %98 = load i32, ptr %97, align 4, !tbaa !14
  %99 = mul nsw i32 %92, %98
  %100 = load i32, ptr %10, align 4, !tbaa !14
  %101 = load ptr, ptr %7, align 8, !tbaa !84
  %102 = getelementptr inbounds nuw %struct.FFDrawContext, ptr %101, i32 0, i32 4
  %103 = load i32, ptr %13, align 4, !tbaa !14
  %104 = sext i32 %103 to i64
  %105 = getelementptr inbounds [4 x i8], ptr %102, i64 0, i64 %104
  %106 = load i8, ptr %105, align 1, !tbaa !70
  %107 = zext i8 %106 to i32
  %108 = ashr i32 %100, %107
  %109 = add nsw i32 %99, %108
  %110 = sext i32 %109 to i64
  %111 = getelementptr inbounds i8, ptr %83, i64 %110
  %112 = load i8, ptr %111, align 1, !tbaa !70
  %113 = zext i8 %112 to i32
  %114 = load ptr, ptr %12, align 8, !tbaa !107
  %115 = load i32, ptr %13, align 4, !tbaa !14
  %116 = sext i32 %115 to i64
  %117 = getelementptr inbounds i32, ptr %114, i64 %116
  store i32 %113, ptr %117, align 4, !tbaa !14
  %118 = load ptr, ptr %12, align 8, !tbaa !107
  %119 = load i32, ptr %13, align 4, !tbaa !14
  %120 = sext i32 %119 to i64
  %121 = getelementptr inbounds i32, ptr %118, i64 %120
  %122 = load i32, ptr %121, align 4, !tbaa !14
  %123 = trunc i32 %122 to i8
  %124 = load ptr, ptr %8, align 8, !tbaa !86
  %125 = getelementptr inbounds nuw %struct.FFDrawColor, ptr %124, i32 0, i32 1
  %126 = load i32, ptr %13, align 4, !tbaa !14
  %127 = sext i32 %126 to i64
  %128 = getelementptr inbounds [4 x %union.anon.2], ptr %125, i64 0, i64 %127
  %129 = getelementptr inbounds [16 x i8], ptr %128, i64 0, i64 0
  store i8 %123, ptr %129, align 4, !tbaa !70
  br label %130

130:                                              ; preds = %77, %76
  br label %131

131:                                              ; preds = %130
  %132 = load i32, ptr %13, align 4, !tbaa !14
  %133 = add nsw i32 %132, 1
  store i32 %133, ptr %13, align 4, !tbaa !14
  br label %18, !llvm.loop !111

134:                                              ; preds = %18
  call void @llvm.lifetime.end.p0(i64 4, ptr %14) #11
  call void @llvm.lifetime.end.p0(i64 4, ptr %13) #11
  ret void
}