; Function Attrs: nofree norecurse nosync nounwind memory(read, argmem: readwrite, inaccessiblemem: none) uwtable
define internal void @pick_color8(ptr noundef readonly captures(none) %0, ptr noundef writeonly captures(none) initializes((3, 4)) %1, ptr noundef readonly captures(none) %2, i32 noundef %3, i32 noundef %4, ptr noundef writeonly captures(none) %5) #7 {
  %7 = getelementptr inbounds nuw i8, ptr %1, i64 3
  store i8 -1, ptr %7, align 1, !tbaa !51
  %8 = getelementptr inbounds nuw i8, ptr %0, i64 12
  %9 = load i32, ptr %8, align 4, !tbaa !93
  %.not = icmp eq i32 %9, 0
  br i1 %.not, label %._crit_edge, label %.lr.ph

.lr.ph:                                           ; preds = %6
  %10 = getelementptr inbounds nuw i8, ptr %0, i64 36
  %11 = getelementptr inbounds nuw i8, ptr %2, i64 64
  %12 = getelementptr inbounds nuw i8, ptr %0, i64 32
  %13 = getelementptr inbounds nuw i8, ptr %1, i64 4
  %14 = getelementptr inbounds nuw i8, ptr %0, i64 16
  %15 = icmp eq i32 %9, 1
  br label %16

16:                                               ; preds = %.lr.ph, %.loopexit
  %indvars.iv39 = phi i64 [ 0, %.lr.ph ], [ %indvars.iv.next40, %.loopexit ]
  %17 = phi i1 [ %15, %.lr.ph ], [ false, %.loopexit ]
  br i1 %17, label %.preheader, label %32

.preheader:                                       ; preds = %16, %.preheader
  %indvars.iv = phi i64 [ %indvars.iv.next, %.preheader ], [ 0, %16 ]
  %18 = load ptr, ptr %2, align 8, !tbaa !83
  %19 = load i32, ptr %11, align 8, !tbaa !84
  %20 = mul nsw i32 %19, %4
  %21 = load i32, ptr %14, align 8, !tbaa !84
  %22 = mul nsw i32 %21, %3
  %23 = trunc nuw nsw i64 %indvars.iv to i32
  %24 = add i32 %20, %23
  %25 = add i32 %24, %22
  %26 = sext i32 %25 to i64
  %27 = getelementptr inbounds i8, ptr %18, i64 %26
  %28 = load i8, ptr %27, align 1, !tbaa !51
  %29 = zext i8 %28 to i32
  %30 = getelementptr inbounds nuw i32, ptr %5, i64 %indvars.iv
  store i32 %29, ptr %30, align 4, !tbaa !84
  %31 = getelementptr inbounds nuw [16 x i8], ptr %13, i64 0, i64 %indvars.iv
  store i8 %28, ptr %31, align 1, !tbaa !51
  %indvars.iv.next = add nuw nsw i64 %indvars.iv, 1
  %exitcond.not = icmp eq i64 %indvars.iv.next, 4
  br i1 %exitcond.not, label %.loopexit, label %.preheader, !llvm.loop !94

32:                                               ; preds = %16
  %33 = getelementptr inbounds nuw [8 x ptr], ptr %2, i64 0, i64 %indvars.iv39
  %34 = load ptr, ptr %33, align 8, !tbaa !83
  %35 = getelementptr inbounds nuw [4 x i8], ptr %10, i64 0, i64 %indvars.iv39
  %36 = load i8, ptr %35, align 1, !tbaa !51
  %37 = zext nneg i8 %36 to i32
  %38 = ashr i32 %4, %37
  %39 = getelementptr inbounds nuw [8 x i32], ptr %11, i64 0, i64 %indvars.iv39
  %40 = load i32, ptr %39, align 4, !tbaa !84
  %41 = mul nsw i32 %38, %40
  %42 = getelementptr inbounds nuw [4 x i8], ptr %12, i64 0, i64 %indvars.iv39
  %43 = load i8, ptr %42, align 1, !tbaa !51
  %44 = zext nneg i8 %43 to i32
  %45 = ashr i32 %3, %44
  %46 = add nsw i32 %45, %41
  %47 = sext i32 %46 to i64
  %48 = getelementptr inbounds i8, ptr %34, i64 %47
  %49 = load i8, ptr %48, align 1, !tbaa !51
  %50 = zext i8 %49 to i32
  %51 = getelementptr inbounds nuw i32, ptr %5, i64 %indvars.iv39
  store i32 %50, ptr %51, align 4, !tbaa !84
  %52 = getelementptr inbounds nuw [4 x %union.anon.2], ptr %13, i64 0, i64 %indvars.iv39
  store i8 %49, ptr %52, align 4, !tbaa !51
  br label %.loopexit

.loopexit:                                        ; preds = %.preheader, %32
  %indvars.iv.next40 = add nuw nsw i64 %indvars.iv39, 1
  %53 = load i32, ptr %8, align 4, !tbaa !93
  %54 = zext i32 %53 to i64
  %55 = icmp samesign ult i64 %indvars.iv.next40, %54
  br i1 %55, label %16, label %._crit_edge, !llvm.loop !95

._crit_edge:                                      ; preds = %.loopexit, %6
  ret void
}